; ModuleID = '50/2015.c'
source_filename = "50/2015.c"
target datalayout = "e-m:e-p270:32:32-p271:32:32-p272:64:64-i64:64-f80:128-n8:16:32:64-S128"
target triple = "x86_64-pc-linux-gnu"

@__const.main.a = private unnamed_addr constant [13 x i32] [i32 0, i32 31, i32 28, i32 31, i32 30, i32 31, i32 30, i32 31, i32 31, i32 30, i32 31, i32 30, i32 31], align 16
@.str = private unnamed_addr constant [3 x i8] c"%d\00", align 1
@.str.1 = private unnamed_addr constant [4 x i8] c"%d\0A\00", align 1

; Function Attrs: noinline nounwind uwtable
define dso_local i32 @main() #0 {
  %1 = alloca i32, align 4
  %2 = alloca [13 x i32], align 16
  %3 = alloca i32, align 4
  %4 = alloca i32, align 4
  %5 = alloca [13 x i32], align 16
  store i32 0, i32* %1, align 4
  %6 = bitcast [13 x i32]* %2 to i8*
  call void @llvm.memcpy.p0i8.p0i8.i64(i8* align 16 %6, i8* align 16 bitcast ([13 x i32]* @__const.main.a to i8*), i64 52, i1 false)
  %7 = bitcast [13 x i32]* %5 to i8*
  call void @llvm.memset.p0i8.i64(i8* align 16 %7, i8 0, i64 52, i1 false)
  %8 = bitcast i8* %7 to <{ i32, [12 x i32] }>*
  %9 = getelementptr inbounds <{ i32, [12 x i32] }>, <{ i32, [12 x i32] }>* %8, i32 0, i32 0
  store i32 13, i32* %9, align 16
  %10 = call i32 (i8*, ...) @__isoc99_scanf(i8* getelementptr inbounds ([3 x i8], [3 x i8]* @.str, i64 0, i64 0), i32* %4)
  store i32 1, i32* %3, align 4
  br label %11

11:                                               ; preds = %29, %0
  %12 = load i32, i32* %3, align 4
  %13 = icmp sle i32 %12, 12
  br i1 %13, label %14, label %32

14:                                               ; preds = %11
  %15 = load i32, i32* %3, align 4
  %16 = sub nsw i32 %15, 1
  %17 = sext i32 %16 to i64
  %18 = getelementptr inbounds [13 x i32], [13 x i32]* %2, i64 0, i64 %17
  %19 = load i32, i32* %18, align 4
  %20 = load i32, i32* %3, align 4
  %21 = sub nsw i32 %20, 1
  %22 = sext i32 %21 to i64
  %23 = getelementptr inbounds [13 x i32], [13 x i32]* %5, i64 0, i64 %22
  %24 = load i32, i32* %23, align 4
  %25 = add nsw i32 %19, %24
  %26 = load i32, i32* %3, align 4
  %27 = sext i32 %26 to i64
  %28 = getelementptr inbounds [13 x i32], [13 x i32]* %5, i64 0, i64 %27
  store i32 %25, i32* %28, align 4
  br label %29

29:                                               ; preds = %14
  %30 = load i32, i32* %3, align 4
  %31 = add nsw i32 %30, 1
  store i32 %31, i32* %3, align 4
  br label %11

32:                                               ; preds = %11
  store i32 1, i32* %3, align 4
  br label %33

33:                                               ; preds = %60, %32
  %34 = load i32, i32* %3, align 4
  %35 = icmp sle i32 %34, 12
  br i1 %35, label %36, label %63

36:                                               ; preds = %33
  %37 = load i32, i32* %3, align 4
  %38 = sext i32 %37 to i64
  %39 = getelementptr inbounds [13 x i32], [13 x i32]* %5, i64 0, i64 %38
  %40 = load i32, i32* %39, align 4
  %41 = srem i32 %40, 7
  %42 = load i32, i32* %4, align 4
  %43 = add nsw i32 %41, %42
  %44 = sub nsw i32 %43, 1
  %45 = icmp eq i32 %44, 5
  br i1 %45, label %56, label %46

46:                                               ; preds = %36
  %47 = load i32, i32* %3, align 4
  %48 = sext i32 %47 to i64
  %49 = getelementptr inbounds [13 x i32], [13 x i32]* %5, i64 0, i64 %48
  %50 = load i32, i32* %49, align 4
  %51 = srem i32 %50, 7
  %52 = load i32, i32* %4, align 4
  %53 = add nsw i32 %51, %52
  %54 = sub nsw i32 %53, 1
  %55 = icmp eq i32 %54, 12
  br i1 %55, label %56, label %59

56:                                               ; preds = %46, %36
  %57 = load i32, i32* %3, align 4
  %58 = call i32 (i8*, ...) @printf(i8* getelementptr inbounds ([4 x i8], [4 x i8]* @.str.1, i64 0, i64 0), i32 %57)
  br label %59

59:                                               ; preds = %56, %46
  br label %60

60:                                               ; preds = %59
  %61 = load i32, i32* %3, align 4
  %62 = add nsw i32 %61, 1
  store i32 %62, i32* %3, align 4
  br label %33

63:                                               ; preds = %33
  ret i32 0
}

; Function Attrs: argmemonly nounwind willreturn
declare void @llvm.memcpy.p0i8.p0i8.i64(i8* noalias nocapture writeonly, i8* noalias nocapture readonly, i64, i1 immarg) #1

; Function Attrs: argmemonly nounwind willreturn
declare void @llvm.memset.p0i8.i64(i8* nocapture writeonly, i8, i64, i1 immarg) #1

declare dso_local i32 @__isoc99_scanf(i8*, ...) #2

declare dso_local i32 @printf(i8*, ...) #2


!llvm.module.flags = !{!0}
!llvm.ident = !{!1}

!0 = !{i32 1, !"wchar_size", i32 4}
!1 = !{!"clang version 10.0.0-4ubuntu1 "}
